target datalayout = "e-m:e-p270:32:32-p271:32:32-p272:64:64-i64:64-i128:128-f80:128-n8:16:32:64-S128"
target triple = "x86_64-pc-linux-gnu"

%"class.cv::saliency::Saliency" = type { %"class.cv::Algorithm", %"class.std::__cxx11::basic_string" }
%"class.cv::Algorithm" = type { ptr }
%"class.std::__cxx11::basic_string" = type { %"struct.std::__cxx11::basic_string<char>::_Alloc_hider", i64, %union.anon }
%"struct.std::__cxx11::basic_string<char>::_Alloc_hider" = type { ptr }
%union.anon = type { i64, [8 x i8] }
%"class.cv::saliency::StaticSaliencySpectralResidual" = type { %"class.cv::saliency::StaticSaliency.base", i32, i32, %"class.cv::saliency::Saliency" }
%"class.cv::saliency::StaticSaliency.base" = type { %"class.cv::Algorithm" }

@.str = private unnamed_addr constant [18 x i8] c"SPECTRAL_RESIDUAL\00", align 1

; Function Attrs: mustprogress nounwind uwtable
define linkonce_odr hidden void @_ZN2cv8saliency14StaticSaliencyD2Ev(ptr noundef nonnull align 8 dereferenceable(8) %0, ptr noundef %1) unnamed_addr #5 comdat align 2 {
  %3 = alloca ptr, align 8
  %4 = alloca ptr, align 8
  store ptr %0, ptr %3, align 8
  store ptr %1, ptr %4, align 8
  ret void
}

; Function Attrs: mustprogress nounwind uwtable
define linkonce_odr hidden void @_ZN2cv8saliency14StaticSaliencyC2Ev(ptr noundef nonnull align 8 dereferenceable(8) %0, ptr noundef %1) unnamed_addr #5 comdat align 2 {
  %3 = alloca ptr, align 8
  %4 = alloca ptr, align 8
  store ptr %0, ptr %3, align 8
  store ptr %1, ptr %4, align 8
  %5 = load ptr, ptr %3, align 8
  %6 = load ptr, ptr %4, align 8
  %7 = load ptr, ptr %6, align 8
  store ptr %7, ptr %5, align 8
  %8 = getelementptr inbounds ptr, ptr %6, i64 1
  %9 = load ptr, ptr %8, align 8
  %10 = load ptr, ptr %5, align 8
  %11 = getelementptr i8, ptr %10, i64 -80
  %12 = load i64, ptr %11, align 8
  %13 = getelementptr inbounds i8, ptr %5, i64 %12
  store ptr %9, ptr %13, align 8
  %14 = getelementptr inbounds ptr, ptr %6, i64 2
  %15 = load ptr, ptr %14, align 8
  %16 = load ptr, ptr %5, align 8
  %17 = getelementptr i8, ptr %16, i64 -88
  %18 = load i64, ptr %17, align 8
  %19 = getelementptr inbounds i8, ptr %5, i64 %18
  store ptr %15, ptr %19, align 8
  ret void
}

; Function Attrs: mustprogress uwtable
define void @_ZN2cv8saliency30StaticSaliencySpectralResidualC2Ev(ptr noundef nonnull align 8 dereferenceable(16) %0, ptr noundef %1) unnamed_addr #4 align 2 personality ptr @__gxx_personality_v0 {
  %3 = alloca ptr, align 8
  %4 = alloca ptr, align 8
  %5 = alloca ptr, align 8
  %6 = alloca i32, align 4
  store ptr %0, ptr %3, align 8
  store ptr %1, ptr %4, align 8
  %7 = load ptr, ptr %3, align 8
  %8 = load ptr, ptr %4, align 8
  %9 = getelementptr inbounds ptr, ptr %8, i64 1
  call void @_ZN2cv8saliency14StaticSaliencyC2Ev(ptr noundef nonnull align 8 dereferenceable(8) %7, ptr noundef %9) #3
  %10 = load ptr, ptr %8, align 8
  store ptr %10, ptr %7, align 8
  %11 = getelementptr inbounds ptr, ptr %8, i64 4
  %12 = load ptr, ptr %11, align 8
  %13 = load ptr, ptr %7, align 8
  %14 = getelementptr i8, ptr %13, i64 -80
  %15 = load i64, ptr %14, align 8
  %16 = getelementptr inbounds i8, ptr %7, i64 %15
  store ptr %12, ptr %16, align 8
  %17 = getelementptr inbounds ptr, ptr %8, i64 5
  %18 = load ptr, ptr %17, align 8
  %19 = load ptr, ptr %7, align 8
  %20 = getelementptr i8, ptr %19, i64 -88
  %21 = load i64, ptr %20, align 8
  %22 = getelementptr inbounds i8, ptr %7, i64 %21
  store ptr %18, ptr %22, align 8
  %23 = load ptr, ptr %7, align 8
  %24 = getelementptr i8, ptr %23, i64 -80
  %25 = load i64, ptr %24, align 8
  %26 = getelementptr inbounds i8, ptr %7, i64 %25
  %27 = getelementptr inbounds %"class.cv::saliency::Saliency", ptr %26, i32 0, i32 1
  %28 = invoke noundef nonnull align 8 dereferenceable(32) ptr @_ZNSt7__cxx1112basic_stringIcSt11char_traitsIcESaIcEEaSEPKc(ptr noundef nonnull align 8 dereferenceable(32) %27, ptr noundef @.str)
          to label %29 unwind label %32

29:                                               ; preds = %2
  %30 = getelementptr inbounds %"class.cv::saliency::StaticSaliencySpectralResidual", ptr %7, i32 0, i32 1
  store i32 64, ptr %30, align 8
  %31 = getelementptr inbounds %"class.cv::saliency::StaticSaliencySpectralResidual", ptr %7, i32 0, i32 2
  store i32 64, ptr %31, align 4
  ret void

32:                                               ; preds = %2
  %33 = landingpad { ptr, i32 }
          cleanup
  %34 = extractvalue { ptr, i32 } %33, 0
  store ptr %34, ptr %5, align 8
  %35 = extractvalue { ptr, i32 } %33, 1
  store i32 %35, ptr %6, align 4
  %36 = getelementptr inbounds ptr, ptr %8, i64 1
  call void @_ZN2cv8saliency14StaticSaliencyD2Ev(ptr noundef nonnull align 8 dereferenceable(8) %7, ptr noundef %36) #3
  br label %37

37:                                               ; preds = %32
  %38 = load ptr, ptr %5, align 8
  %39 = load i32, ptr %6, align 4
  %40 = insertvalue { ptr, i32 } poison, ptr %38, 0
  %41 = insertvalue { ptr, i32 } %40, i32 %39, 1
  resume { ptr, i32 } %41
}